; Function Attrs: nounwind uwtable
define void @Saig_StrSimPrepareAig(ptr noundef %0) local_unnamed_addr #2 {
  %2 = getelementptr i8, ptr %0, i64 32
  %.val29 = load ptr, ptr %2, align 8, !tbaa !20
  %3 = getelementptr i8, ptr %.val29, i64 4
  %.val29.val = load i32, ptr %3, align 4, !tbaa !32
  tail call void @Aig_ManReprStart(ptr noundef %0, i32 noundef %.val29.val) #19
  %.val28 = load ptr, ptr %2, align 8, !tbaa !20
  %4 = getelementptr i8, ptr %.val28, i64 4
  %.val28.val = load i32, ptr %4, align 4, !tbaa !32
  %5 = sext i32 %.val28.val to i64
  %6 = mul nsw i64 %5, 72
  %7 = tail call noalias ptr @malloc(i64 noundef %6) #21
  %8 = getelementptr inbounds ptr, ptr %7, i64 %5
  %9 = icmp sgt i32 %.val28.val, 0
  br i1 %9, label %.lr.ph.preheader.i, label %Vec_PtrAllocSimInfo.exit

.lr.ph.preheader.i:                               ; preds = %1
  %wide.trip.count.i = zext nneg i32 %.val28.val to i64
  br label %.lr.ph.i

.lr.ph.i:                                         ; preds = %.lr.ph.i, %.lr.ph.preheader.i
  %indvars.iv.i = phi i64 [ 0, %.lr.ph.preheader.i ], [ %indvars.iv.next.i, %.lr.ph.i ]
  %.idx.i = shl nsw i64 %indvars.iv.i, 6
  %10 = getelementptr inbounds nuw i8, ptr %8, i64 %.idx.i
  %11 = getelementptr inbounds nuw ptr, ptr %7, i64 %indvars.iv.i
  store ptr %10, ptr %11, align 8, !tbaa !35
  %indvars.iv.next.i = add nuw nsw i64 %indvars.iv.i, 1
  %exitcond.not.i = icmp eq i64 %indvars.iv.next.i, %wide.trip.count.i
  br i1 %exitcond.not.i, label %Vec_PtrAllocSimInfo.exit, label %.lr.ph.i, !llvm.loop !62

Vec_PtrAllocSimInfo.exit:                         ; preds = %.lr.ph.i, %1
  %12 = tail call noalias dereferenceable_or_null(16) ptr @malloc(i64 noundef 16) #21
  %13 = getelementptr inbounds nuw i8, ptr %12, i64 4
  store i32 %.val28.val, ptr %13, align 4, !tbaa !32
  store i32 %.val28.val, ptr %12, align 8, !tbaa !63
  %14 = getelementptr inbounds nuw i8, ptr %12, i64 8
  store ptr %7, ptr %14, align 8, !tbaa !34
  %15 = getelementptr inbounds nuw i8, ptr %0, i64 304
  store ptr %12, ptr %15, align 8, !tbaa !64
  br i1 %9, label %.lr.ph, label %.critedge

.lr.ph:                                           ; preds = %Vec_PtrAllocSimInfo.exit, %27
  %16 = phi ptr [ %28, %27 ], [ %.val28, %Vec_PtrAllocSimInfo.exit ]
  %indvars.iv = phi i64 [ %indvars.iv.next, %27 ], [ 0, %Vec_PtrAllocSimInfo.exit ]
  %17 = getelementptr i8, ptr %16, i64 8
  %.val25 = load ptr, ptr %17, align 8, !tbaa !34
  %18 = getelementptr inbounds nuw ptr, ptr %.val25, i64 %indvars.iv
  %19 = load ptr, ptr %18, align 8, !tbaa !35
  %20 = icmp eq ptr %19, null
  br i1 %20, label %27, label %21

21:                                               ; preds = %.lr.ph
  %22 = load ptr, ptr %15, align 8, !tbaa !64
  %23 = getelementptr i8, ptr %22, i64 8
  %.val24 = load ptr, ptr %23, align 8, !tbaa !34
  %24 = getelementptr inbounds nuw ptr, ptr %.val24, i64 %indvars.iv
  %25 = load ptr, ptr %24, align 8, !tbaa !35
  %26 = getelementptr inbounds nuw i8, ptr %19, i64 40
  store ptr %25, ptr %26, align 8, !tbaa !3
  %.pre = load ptr, ptr %2, align 8, !tbaa !20
  br label %27

27:                                               ; preds = %21, %.lr.ph
  %28 = phi ptr [ %.pre, %21 ], [ %16, %.lr.ph ]
  %indvars.iv.next = add nuw nsw i64 %indvars.iv, 1
  %29 = getelementptr i8, ptr %28, i64 4
  %.val = load i32, ptr %29, align 4, !tbaa !32
  %30 = sext i32 %.val to i64
  %31 = icmp slt i64 %indvars.iv.next, %30
  br i1 %31, label %.lr.ph, label %.critedge, !llvm.loop !65

.critedge:                                        ; preds = %27, %Vec_PtrAllocSimInfo.exit
  %32 = getelementptr i8, ptr %0, i64 48
  %.val30 = load ptr, ptr %32, align 8, !tbaa !66
  %33 = getelementptr inbounds nuw i8, ptr %.val30, i64 40
  %34 = load ptr, ptr %33, align 8, !tbaa !3
  tail call void @llvm.memset.p0.i64(ptr noundef nonnull align 4 dereferenceable(64) %34, i8 -1, i64 64, i1 false), !tbaa !6
  %35 = getelementptr i8, ptr %0, i64 104
  %.val2633 = load i32, ptr %35, align 8, !tbaa !40
  %36 = icmp sgt i32 %.val2633, 0
  br i1 %36, label %.lr.ph35, label %.critedge2

.lr.ph35:                                         ; preds = %.critedge
  %37 = getelementptr inbounds nuw i8, ptr %0, i64 16
  %38 = load ptr, ptr %37, align 8, !tbaa !45
  %39 = getelementptr i8, ptr %0, i64 108
  %40 = getelementptr i8, ptr %38, i64 8
  %.val23 = load ptr, ptr %40, align 8, !tbaa !34
  br label %41

41:                                               ; preds = %.lr.ph35, %41
  %.134 = phi i32 [ 0, %.lr.ph35 ], [ %48, %41 ]
  %.val27 = load i32, ptr %39, align 4, !tbaa !46
  %42 = add nsw i32 %.val27, %.134
  %43 = sext i32 %42 to i64
  %44 = getelementptr inbounds ptr, ptr %.val23, i64 %43
  %45 = load ptr, ptr %44, align 8, !tbaa !35
  %46 = getelementptr inbounds nuw i8, ptr %45, i64 40
  %47 = load ptr, ptr %46, align 8, !tbaa !3
  store i32 0, ptr %47, align 4, !tbaa !6
  %48 = add nuw nsw i32 %.134, 1
  %.val26 = load i32, ptr %35, align 8, !tbaa !40
  %49 = icmp slt i32 %48, %.val26
  br i1 %49, label %41, label %.critedge2, !llvm.loop !67

.critedge2:                                       ; preds = %41, %.critedge
  ret void
}